target datalayout = "e-m:e-p270:32:32-p271:32:32-p272:64:64-i64:64-i128:128-f80:128-n8:16:32:64-S128"
target triple = "x86_64-pc-linux-gnu"

; Function Attrs: nounwind uwtable
define i32 @Dau_DecCheckSetTopOld(ptr noundef %0, i32 noundef %1, i32 noundef %2, i32 noundef %3, i32 noundef %4, i32 noundef %5, ptr noundef %6, ptr noundef %7, ptr noundef %8) #0 {
  %10 = alloca i32, align 4
  %11 = alloca ptr, align 8
  %12 = alloca i32, align 4
  %13 = alloca i32, align 4
  %14 = alloca i32, align 4
  %15 = alloca i32, align 4
  %16 = alloca i32, align 4
  %17 = alloca ptr, align 8
  %18 = alloca ptr, align 8
  %19 = alloca ptr, align 8
  %20 = alloca i32, align 4
  %21 = alloca [16 x i32], align 16
  %22 = alloca i32, align 4
  %23 = alloca i32, align 4
  %24 = alloca i32, align 4
  %25 = alloca i32, align 4
  %26 = alloca i32, align 4
  store ptr %0, ptr %11, align 8, !tbaa !3
  store i32 %1, ptr %12, align 4, !tbaa !8
  store i32 %2, ptr %13, align 4, !tbaa !8
  store i32 %3, ptr %14, align 4, !tbaa !8
  store i32 %4, ptr %15, align 4, !tbaa !8
  store i32 %5, ptr %16, align 4, !tbaa !8
  store ptr %6, ptr %17, align 8, !tbaa !23
  store ptr %7, ptr %18, align 8, !tbaa !23
  store ptr %8, ptr %19, align 8, !tbaa !23
  call void @llvm.lifetime.start.p0(i64 4, ptr %20) #11
  call void @llvm.lifetime.start.p0(i64 64, ptr %21) #11
  call void @llvm.lifetime.start.p0(i64 4, ptr %22) #11
  call void @llvm.lifetime.start.p0(i64 4, ptr %23) #11
  call void @llvm.lifetime.start.p0(i64 4, ptr %24) #11
  %27 = load i32, ptr %15, align 4, !tbaa !8
  %28 = shl i32 1, %27
  store i32 %28, ptr %24, align 4, !tbaa !8
  call void @llvm.lifetime.start.p0(i64 4, ptr %25) #11
  %29 = load i32, ptr %15, align 4, !tbaa !8
  %30 = icmp eq i32 %29, 0
  br i1 %30, label %31, label %63

31:                                               ; preds = %9
  %32 = load ptr, ptr %11, align 8, !tbaa !3
  %33 = load i32, ptr %12, align 4, !tbaa !8
  %34 = load i32, ptr %13, align 4, !tbaa !8
  %35 = load ptr, ptr %17, align 8, !tbaa !23
  %36 = icmp ne ptr %35, null
  br i1 %36, label %37, label %41

37:                                               ; preds = %31
  %38 = load ptr, ptr %17, align 8, !tbaa !23
  %39 = getelementptr inbounds ptr, ptr %38, i64 0
  %40 = load ptr, ptr %39, align 8, !tbaa !3
  br label %42

41:                                               ; preds = %31
  br label %42

42:                                               ; preds = %41, %37
  %43 = phi ptr [ %40, %37 ], [ null, %41 ]
  %44 = load ptr, ptr %18, align 8, !tbaa !23
  %45 = icmp ne ptr %44, null
  br i1 %45, label %46, label %50

46:                                               ; preds = %42
  %47 = load ptr, ptr %18, align 8, !tbaa !23
  %48 = getelementptr inbounds ptr, ptr %47, i64 0
  %49 = load ptr, ptr %48, align 8, !tbaa !3
  br label %51

50:                                               ; preds = %42
  br label %51

51:                                               ; preds = %50, %46
  %52 = phi ptr [ %49, %46 ], [ null, %50 ]
  %53 = load ptr, ptr %19, align 8, !tbaa !23
  %54 = icmp ne ptr %53, null
  br i1 %54, label %55, label %59

55:                                               ; preds = %51
  %56 = load ptr, ptr %19, align 8, !tbaa !23
  %57 = getelementptr inbounds ptr, ptr %56, i64 0
  %58 = load ptr, ptr %57, align 8, !tbaa !3
  br label %60

59:                                               ; preds = %51
  br label %60

60:                                               ; preds = %59, %55
  %61 = phi ptr [ %58, %55 ], [ null, %59 ]
  %62 = call i32 @Dau_DecCheckSetAny(ptr noundef %32, i32 noundef %33, i32 noundef %34, i32 noundef 0, i32 noundef 0, ptr noundef %43, ptr noundef %52, ptr noundef %61)
  store i32 %62, ptr %10, align 4
  store i32 1, ptr %26, align 4
  br label %159

63:                                               ; preds = %9
  store i32 0, ptr %20, align 4, !tbaa !8
  store i32 0, ptr %22, align 4, !tbaa !8
  br label %64

64:                                               ; preds = %81, %63
  %65 = load i32, ptr %22, align 4, !tbaa !8
  %66 = load i32, ptr %14, align 4, !tbaa !8
  %67 = icmp slt i32 %65, %66
  br i1 %67, label %68, label %84

68:                                               ; preds = %64
  %69 = load i32, ptr %16, align 4, !tbaa !8
  %70 = load i32, ptr %22, align 4, !tbaa !8
  %71 = ashr i32 %69, %70
  %72 = and i32 %71, 1
  %73 = icmp ne i32 %72, 0
  br i1 %73, label %74, label %80

74:                                               ; preds = %68
  %75 = load i32, ptr %22, align 4, !tbaa !8
  %76 = load i32, ptr %20, align 4, !tbaa !8
  %77 = add nsw i32 %76, 1
  store i32 %77, ptr %20, align 4, !tbaa !8
  %78 = sext i32 %76 to i64
  %79 = getelementptr inbounds [16 x i32], ptr %21, i64 0, i64 %78
  store i32 %75, ptr %79, align 4, !tbaa !8
  br label %80

80:                                               ; preds = %74, %68
  br label %81

81:                                               ; preds = %80
  %82 = load i32, ptr %22, align 4, !tbaa !8
  %83 = add nsw i32 %82, 1
  store i32 %83, ptr %22, align 4, !tbaa !8
  br label %64, !llvm.loop !25

84:                                               ; preds = %64
  store i32 0, ptr %23, align 4, !tbaa !8
  br label %85

85:                                               ; preds = %155, %84
  %86 = load i32, ptr %23, align 4, !tbaa !8
  %87 = load i32, ptr %24, align 4, !tbaa !8
  %88 = icmp slt i32 %86, %87
  br i1 %88, label %89, label %158

89:                                               ; preds = %85
  store i32 0, ptr %25, align 4, !tbaa !8
  store i32 0, ptr %22, align 4, !tbaa !8
  br label %90

90:                                               ; preds = %109, %89
  %91 = load i32, ptr %22, align 4, !tbaa !8
  %92 = load i32, ptr %15, align 4, !tbaa !8
  %93 = icmp slt i32 %91, %92
  br i1 %93, label %94, label %112

94:                                               ; preds = %90
  %95 = load i32, ptr %23, align 4, !tbaa !8
  %96 = load i32, ptr %22, align 4, !tbaa !8
  %97 = ashr i32 %95, %96
  %98 = and i32 %97, 1
  %99 = icmp ne i32 %98, 0
  br i1 %99, label %100, label %108

100:                                              ; preds = %94
  %101 = load i32, ptr %22, align 4, !tbaa !8
  %102 = sext i32 %101 to i64
  %103 = getelementptr inbounds [16 x i32], ptr %21, i64 0, i64 %102
  %104 = load i32, ptr %103, align 4, !tbaa !8
  %105 = shl i32 1, %104
  %106 = load i32, ptr %25, align 4, !tbaa !8
  %107 = or i32 %106, %105
  store i32 %107, ptr %25, align 4, !tbaa !8
  br label %108

108:                                              ; preds = %100, %94
  br label %109

109:                                              ; preds = %108
  %110 = load i32, ptr %22, align 4, !tbaa !8
  %111 = add nsw i32 %110, 1
  store i32 %111, ptr %22, align 4, !tbaa !8
  br label %90, !llvm.loop !26

112:                                              ; preds = %90
  %113 = load ptr, ptr %11, align 8, !tbaa !3
  %114 = load i32, ptr %12, align 4, !tbaa !8
  %115 = load i32, ptr %13, align 4, !tbaa !8
  %116 = load i32, ptr %16, align 4, !tbaa !8
  %117 = load i32, ptr %25, align 4, !tbaa !8
  %118 = load ptr, ptr %17, align 8, !tbaa !23
  %119 = icmp ne ptr %118, null
  br i1 %119, label %120, label %126

120:                                              ; preds = %112
  %121 = load ptr, ptr %17, align 8, !tbaa !23
  %122 = load i32, ptr %23, align 4, !tbaa !8
  %123 = sext i32 %122 to i64
  %124 = getelementptr inbounds ptr, ptr %121, i64 %123
  %125 = load ptr, ptr %124, align 8, !tbaa !3
  br label %127

126:                                              ; preds = %112
  br label %127

127:                                              ; preds = %126, %120
  %128 = phi ptr [ %125, %120 ], [ null, %126 ]
  %129 = load ptr, ptr %18, align 8, !tbaa !23
  %130 = icmp ne ptr %129, null
  br i1 %130, label %131, label %137

131:                                              ; preds = %127
  %132 = load ptr, ptr %18, align 8, !tbaa !23
  %133 = load i32, ptr %23, align 4, !tbaa !8
  %134 = sext i32 %133 to i64
  %135 = getelementptr inbounds ptr, ptr %132, i64 %134
  %136 = load ptr, ptr %135, align 8, !tbaa !3
  br label %138

137:                                              ; preds = %127
  br label %138

138:                                              ; preds = %137, %131
  %139 = phi ptr [ %136, %131 ], [ null, %137 ]
  %140 = load ptr, ptr %19, align 8, !tbaa !23
  %141 = icmp ne ptr %140, null
  br i1 %141, label %142, label %148

142:                                              ; preds = %138
  %143 = load ptr, ptr %19, align 8, !tbaa !23
  %144 = load i32, ptr %23, align 4, !tbaa !8
  %145 = sext i32 %144 to i64
  %146 = getelementptr inbounds ptr, ptr %143, i64 %145
  %147 = load ptr, ptr %146, align 8, !tbaa !3
  br label %149

148:                                              ; preds = %138
  br label %149

149:                                              ; preds = %148, %142
  %150 = phi ptr [ %147, %142 ], [ null, %148 ]
  %151 = call i32 @Dau_DecCheckSetAny(ptr noundef %113, i32 noundef %114, i32 noundef %115, i32 noundef %116, i32 noundef %117, ptr noundef %128, ptr noundef %139, ptr noundef %150)
  %152 = icmp ne i32 %151, 0
  br i1 %152, label %154, label %153

153:                                              ; preds = %149
  store i32 0, ptr %10, align 4
  store i32 1, ptr %26, align 4
  br label %159

154:                                              ; preds = %149
  br label %155

155:                                              ; preds = %154
  %156 = load i32, ptr %23, align 4, !tbaa !8
  %157 = add nsw i32 %156, 1
  store i32 %157, ptr %23, align 4, !tbaa !8
  br label %85, !llvm.loop !27

158:                                              ; preds = %85
  store i32 1, ptr %10, align 4
  store i32 1, ptr %26, align 4
  br label %159

159:                                              ; preds = %158, %153, %60
  call void @llvm.lifetime.end.p0(i64 4, ptr %25) #11
  call void @llvm.lifetime.end.p0(i64 4, ptr %24) #11
  call void @llvm.lifetime.end.p0(i64 4, ptr %23) #11
  call void @llvm.lifetime.end.p0(i64 4, ptr %22) #11
  call void @llvm.lifetime.end.p0(i64 64, ptr %21) #11
  call void @llvm.lifetime.end.p0(i64 4, ptr %20) #11
  %160 = load i32, ptr %10, align 4
  ret i32 %160
}