; Function Attrs: nofree nounwind memory(readwrite, inaccessiblemem: none) uwtable
define range(i32 0, 2) i32 @Dau_DecCheckSetTopOld(ptr noundef readonly captures(none) %0, i32 noundef %1, i32 noundef %2, i32 noundef %3, i32 noundef %4, i32 noundef %5, ptr noundef readonly %6, ptr noundef readonly %7, ptr noundef readonly %8) local_unnamed_addr #2 {
  %10 = alloca [16 x i32], align 16
  call void @llvm.lifetime.start.p0(i64 64, ptr nonnull %10) #20
  %11 = shl nuw i32 1, %4
  %12 = icmp eq i32 %4, 0
  br i1 %12, label %14, label %.preheader64

.preheader64:                                     ; preds = %9
  %13 = icmp sgt i32 %3, 0
  br i1 %13, label %.lr.ph, label %.preheader63

14:                                               ; preds = %9
  %.not60 = icmp eq ptr %6, null
  br i1 %.not60, label %17, label %15

15:                                               ; preds = %14
  %16 = load ptr, ptr %6, align 8, !tbaa !15
  br label %17

17:                                               ; preds = %14, %15
  %18 = phi ptr [ %16, %15 ], [ null, %14 ]
  %.not61 = icmp eq ptr %7, null
  br i1 %.not61, label %21, label %19

19:                                               ; preds = %17
  %20 = load ptr, ptr %7, align 8, !tbaa !15
  br label %21

21:                                               ; preds = %17, %19
  %22 = phi ptr [ %20, %19 ], [ null, %17 ]
  %.not62 = icmp eq ptr %8, null
  br i1 %.not62, label %25, label %23

23:                                               ; preds = %21
  %24 = load ptr, ptr %8, align 8, !tbaa !15
  br label %25

25:                                               ; preds = %21, %23
  %26 = phi ptr [ %24, %23 ], [ null, %21 ]
  %27 = tail call fastcc i32 @Dau_DecCheckSetAny(ptr noundef %0, i32 noundef %1, i32 noundef %2, i32 noundef 0, i32 noundef 0, ptr noundef %18, ptr noundef %22, ptr noundef %26)
  br label %.loopexit

.preheader63:                                     ; preds = %91, %.preheader64
  %.not98 = icmp eq i32 %4, 31
  br i1 %.not98, label %.loopexit, label %.preheader.lr.ph

.preheader.lr.ph:                                 ; preds = %.preheader63
  %28 = icmp sgt i32 %4, 0
  %.not = icmp eq ptr %6, null
  %.not55 = icmp eq ptr %7, null
  %.not56 = icmp eq ptr %8, null
  %smax143 = tail call i32 @llvm.smax.i32(i32 %11, i32 1)
  %wide.trip.count144 = zext nneg i32 %smax143 to i64
  br i1 %28, label %.preheader.us.preheader, label %.preheader.lr.ph.split

.preheader.us.preheader:                          ; preds = %.preheader.lr.ph
  %wide.trip.count138 = zext nneg i32 %4 to i64
  br label %.preheader.us

.preheader.us:                                    ; preds = %.preheader.us.preheader, %56
  %indvars.iv140 = phi i64 [ 0, %.preheader.us.preheader ], [ %indvars.iv.next141, %56 ]
  %29 = trunc nuw nsw i64 %indvars.iv140 to i32
  br label %46

30:                                               ; preds = %._crit_edge.us
  %31 = getelementptr inbounds nuw ptr, ptr %6, i64 %indvars.iv140
  %32 = load ptr, ptr %31, align 8, !tbaa !15
  br label %33

33:                                               ; preds = %30, %._crit_edge.us
  %34 = phi ptr [ %32, %30 ], [ null, %._crit_edge.us ]
  br i1 %.not55, label %38, label %35

35:                                               ; preds = %33
  %36 = getelementptr inbounds nuw ptr, ptr %7, i64 %indvars.iv140
  %37 = load ptr, ptr %36, align 8, !tbaa !15
  br label %38

38:                                               ; preds = %35, %33
  %39 = phi ptr [ %37, %35 ], [ null, %33 ]
  br i1 %.not56, label %43, label %40

40:                                               ; preds = %38
  %41 = getelementptr inbounds nuw ptr, ptr %8, i64 %indvars.iv140
  %42 = load ptr, ptr %41, align 8, !tbaa !15
  br label %43

43:                                               ; preds = %40, %38
  %44 = phi ptr [ %42, %40 ], [ null, %38 ]
  %45 = tail call fastcc i32 @Dau_DecCheckSetAny(ptr noundef %0, i32 noundef %1, i32 noundef %2, i32 noundef %5, i32 noundef %.1.us, ptr noundef %34, ptr noundef %39, ptr noundef %44)
  %.not57.us = icmp eq i32 %45, 0
  br i1 %.not57.us, label %.loopexit, label %56

46:                                               ; preds = %.preheader.us, %55
  %indvars.iv135 = phi i64 [ 0, %.preheader.us ], [ %indvars.iv.next136, %55 ]
  %.068.us = phi i32 [ 0, %.preheader.us ], [ %.1.us, %55 ]
  %47 = trunc nuw nsw i64 %indvars.iv135 to i32
  %48 = shl nuw i32 1, %47
  %49 = and i32 %48, %29
  %.not58.us = icmp eq i32 %49, 0
  br i1 %.not58.us, label %55, label %50

50:                                               ; preds = %46
  %51 = getelementptr inbounds nuw [16 x i32], ptr %10, i64 0, i64 %indvars.iv135
  %52 = load i32, ptr %51, align 4, !tbaa !3
  %53 = shl nuw i32 1, %52
  %54 = or i32 %53, %.068.us
  br label %55

55:                                               ; preds = %50, %46
  %.1.us = phi i32 [ %54, %50 ], [ %.068.us, %46 ]
  %indvars.iv.next136 = add nuw nsw i64 %indvars.iv135, 1
  %exitcond139.not = icmp eq i64 %indvars.iv.next136, %wide.trip.count138
  br i1 %exitcond139.not, label %._crit_edge.us, label %46, !llvm.loop !21

56:                                               ; preds = %43
  %indvars.iv.next141 = add nuw nsw i64 %indvars.iv140, 1
  %exitcond145.not = icmp eq i64 %indvars.iv.next141, %wide.trip.count144
  br i1 %exitcond145.not, label %.loopexit, label %.preheader.us, !llvm.loop !22

._crit_edge.us:                                   ; preds = %55
  br i1 %.not, label %33, label %30

.preheader.lr.ph.split:                           ; preds = %.preheader.lr.ph
  br i1 %.not, label %.preheader.us75, label %.preheader.lr.ph.split.split

.preheader.us75:                                  ; preds = %.preheader.lr.ph.split, %68
  %indvars.iv129 = phi i64 [ %indvars.iv.next130, %68 ], [ 0, %.preheader.lr.ph.split ]
  br i1 %.not55, label %60, label %57

57:                                               ; preds = %.preheader.us75
  %58 = getelementptr inbounds nuw ptr, ptr %7, i64 %indvars.iv129
  %59 = load ptr, ptr %58, align 8, !tbaa !15
  br label %60

60:                                               ; preds = %57, %.preheader.us75
  %61 = phi ptr [ %59, %57 ], [ null, %.preheader.us75 ]
  br i1 %.not56, label %65, label %62

62:                                               ; preds = %60
  %63 = getelementptr inbounds nuw ptr, ptr %8, i64 %indvars.iv129
  %64 = load ptr, ptr %63, align 8, !tbaa !15
  br label %65

65:                                               ; preds = %62, %60
  %66 = phi ptr [ %64, %62 ], [ null, %60 ]
  %67 = tail call fastcc i32 @Dau_DecCheckSetAny(ptr noundef %0, i32 noundef %1, i32 noundef %2, i32 noundef %5, i32 noundef 0, ptr noundef null, ptr noundef %61, ptr noundef %66)
  %.not57.us77 = icmp eq i32 %67, 0
  br i1 %.not57.us77, label %.loopexit, label %68

68:                                               ; preds = %65
  %indvars.iv.next130 = add nuw nsw i64 %indvars.iv129, 1
  %exitcond134.not = icmp eq i64 %indvars.iv.next130, %wide.trip.count144
  br i1 %exitcond134.not, label %.loopexit, label %.preheader.us75, !llvm.loop !22

.preheader.lr.ph.split.split:                     ; preds = %.preheader.lr.ph.split
  br i1 %.not55, label %.preheader.lr.ph.split.split.split.us, label %.preheader.lr.ph.split.split.split

.preheader.lr.ph.split.split.split.us:            ; preds = %.preheader.lr.ph.split.split
  br i1 %.not56, label %.preheader.us82.us, label %.preheader.us82

.preheader.us82.us:                               ; preds = %.preheader.lr.ph.split.split.split.us, %72
  %indvars.iv123 = phi i64 [ %indvars.iv.next124, %72 ], [ 0, %.preheader.lr.ph.split.split.split.us ]
  %69 = getelementptr inbounds nuw ptr, ptr %6, i64 %indvars.iv123
  %70 = load ptr, ptr %69, align 8, !tbaa !15
  %71 = tail call fastcc i32 @Dau_DecCheckSetAny(ptr noundef %0, i32 noundef %1, i32 noundef %2, i32 noundef %5, i32 noundef 0, ptr noundef %70, ptr noundef null, ptr noundef null)
  %.not57.us84.us = icmp eq i32 %71, 0
  br i1 %.not57.us84.us, label %.loopexit, label %72

72:                                               ; preds = %.preheader.us82.us
  %indvars.iv.next124 = add nuw nsw i64 %indvars.iv123, 1
  %exitcond128.not = icmp eq i64 %indvars.iv.next124, %wide.trip.count144
  br i1 %exitcond128.not, label %.loopexit, label %.preheader.us82.us, !llvm.loop !22

.preheader.us82:                                  ; preds = %.preheader.lr.ph.split.split.split.us, %78
  %indvars.iv117 = phi i64 [ %indvars.iv.next118, %78 ], [ 0, %.preheader.lr.ph.split.split.split.us ]
  %73 = getelementptr inbounds nuw ptr, ptr %6, i64 %indvars.iv117
  %74 = load ptr, ptr %73, align 8, !tbaa !15
  %75 = getelementptr inbounds nuw ptr, ptr %8, i64 %indvars.iv117
  %76 = load ptr, ptr %75, align 8, !tbaa !15
  %77 = tail call fastcc i32 @Dau_DecCheckSetAny(ptr noundef %0, i32 noundef %1, i32 noundef %2, i32 noundef %5, i32 noundef 0, ptr noundef %74, ptr noundef null, ptr noundef %76)
  %.not57.us84 = icmp eq i32 %77, 0
  br i1 %.not57.us84, label %.loopexit, label %78

78:                                               ; preds = %.preheader.us82
  %indvars.iv.next118 = add nuw nsw i64 %indvars.iv117, 1
  %exitcond122.not = icmp eq i64 %indvars.iv.next118, %wide.trip.count144
  br i1 %exitcond122.not, label %.loopexit, label %.preheader.us82, !llvm.loop !22

.preheader.lr.ph.split.split.split:               ; preds = %.preheader.lr.ph.split.split
  br i1 %.not56, label %.preheader.us89, label %.preheader

.preheader.us89:                                  ; preds = %.preheader.lr.ph.split.split.split, %84
  %indvars.iv111 = phi i64 [ %indvars.iv.next112, %84 ], [ 0, %.preheader.lr.ph.split.split.split ]
  %79 = getelementptr inbounds nuw ptr, ptr %6, i64 %indvars.iv111
  %80 = load ptr, ptr %79, align 8, !tbaa !15
  %81 = getelementptr inbounds nuw ptr, ptr %7, i64 %indvars.iv111
  %82 = load ptr, ptr %81, align 8, !tbaa !15
  %83 = tail call fastcc i32 @Dau_DecCheckSetAny(ptr noundef %0, i32 noundef %1, i32 noundef %2, i32 noundef %5, i32 noundef 0, ptr noundef %80, ptr noundef %82, ptr noundef null)
  %.not57.us91 = icmp eq i32 %83, 0
  br i1 %.not57.us91, label %.loopexit, label %84

84:                                               ; preds = %.preheader.us89
  %indvars.iv.next112 = add nuw nsw i64 %indvars.iv111, 1
  %exitcond116.not = icmp eq i64 %indvars.iv.next112, %wide.trip.count144
  br i1 %exitcond116.not, label %.loopexit, label %.preheader.us89, !llvm.loop !22

.lr.ph:                                           ; preds = %.preheader64, %91
  %.04466 = phi i32 [ %92, %91 ], [ 0, %.preheader64 ]
  %.04665 = phi i32 [ %.147, %91 ], [ 0, %.preheader64 ]
  %85 = shl nuw i32 1, %.04466
  %86 = and i32 %85, %5
  %.not59 = icmp eq i32 %86, 0
  br i1 %.not59, label %91, label %87

87:                                               ; preds = %.lr.ph
  %88 = add nsw i32 %.04665, 1
  %89 = sext i32 %.04665 to i64
  %90 = getelementptr inbounds [16 x i32], ptr %10, i64 0, i64 %89
  store i32 %.04466, ptr %90, align 4, !tbaa !3
  br label %91

91:                                               ; preds = %.lr.ph, %87
  %.147 = phi i32 [ %88, %87 ], [ %.04665, %.lr.ph ]
  %92 = add nuw nsw i32 %.04466, 1
  %exitcond.not = icmp eq i32 %92, %3
  br i1 %exitcond.not, label %.preheader63, label %.lr.ph, !llvm.loop !23

93:                                               ; preds = %.preheader
  %indvars.iv.next = add nuw nsw i64 %indvars.iv, 1
  %exitcond110.not = icmp eq i64 %indvars.iv.next, %wide.trip.count144
  br i1 %exitcond110.not, label %.loopexit, label %.preheader, !llvm.loop !22

.preheader:                                       ; preds = %.preheader.lr.ph.split.split.split, %93
  %indvars.iv = phi i64 [ %indvars.iv.next, %93 ], [ 0, %.preheader.lr.ph.split.split.split ]
  %94 = getelementptr inbounds nuw ptr, ptr %6, i64 %indvars.iv
  %95 = load ptr, ptr %94, align 8, !tbaa !15
  %96 = getelementptr inbounds nuw ptr, ptr %7, i64 %indvars.iv
  %97 = load ptr, ptr %96, align 8, !tbaa !15
  %98 = getelementptr inbounds nuw ptr, ptr %8, i64 %indvars.iv
  %99 = load ptr, ptr %98, align 8, !tbaa !15
  %100 = tail call fastcc i32 @Dau_DecCheckSetAny(ptr noundef %0, i32 noundef %1, i32 noundef %2, i32 noundef %5, i32 noundef 0, ptr noundef %95, ptr noundef %97, ptr noundef %99)
  %.not57 = icmp eq i32 %100, 0
  br i1 %.not57, label %.loopexit, label %93

.loopexit:                                        ; preds = %.preheader, %93, %.preheader.us89, %84, %.preheader.us82, %78, %.preheader.us82.us, %72, %65, %68, %43, %56, %.preheader63, %25
  %.042 = phi i32 [ %27, %25 ], [ 1, %.preheader63 ], [ 0, %43 ], [ 1, %56 ], [ 0, %65 ], [ 1, %68 ], [ 0, %.preheader.us82.us ], [ 1, %72 ], [ 0, %.preheader.us82 ], [ 1, %78 ], [ 0, %.preheader.us89 ], [ 1, %84 ], [ 0, %.preheader ], [ 1, %93 ]
  call void @llvm.lifetime.end.p0(i64 64, ptr nonnull %10) #20
  ret i32 %.042
}